(dp1
S'OriginalConfig'
p2
ccopy_reg
_reconstructor
p3
(cWMCore.Configuration
Configuration
p4
c__builtin__
object
p5
NtRp6
(dp7
S'Site'
p8
g3
(cWMCore.Configuration
ConfigSection
p9
g5
NtRp10
(dp11
S'_internal_skipChecks'
p12
I00
sS'_internal_documentation'
p13
S''
sS'_internal_settings'
p14
c__builtin__
set
p15
((lp16
S'blacklist'
p17
aS'storageSite'
p18
atRp19
sS'_internal_name'
p20
g8
sS'_internal_docstrings'
p21
(dp22
sg17
(lp23
S'T2_US_Purdue'
p24
asS'_internal_children'
p25
g15
((ltRp26
sg18
S'T3_US_UMD'
p27
sS'_internal_parent_ref'
p28
NsbsS'_internal_sections'
p29
(lp30
S'General'
p31
aS'JobType'
p32
aS'Data'
p33
ag8
asg31
g3
(g9
g5
NtRp34
(dp35
g12
I00
sg13
S''
sg14
g15
((lp36
S'workArea'
p37
aS'requestName'
p38
atRp39
sg20
g31
sg21
(dp40
sg25
g15
((ltRp41
sg38
S'Analysis-20170228-GJets_HT-200To400_RunIISpring15DR74-2017-0301-135541'
p42
sg28
Nsg37
S'crabTasks/crab_Analysis-20170228-2017-0301-v2'
p43
sbsS'_internal_webapps'
p44
(lp45
sS'_internal_components'
p46
(lp47
sg33
g3
(g9
g5
NtRp48
(dp49
S'inputDataset'
p50
S'/GJets_HT-200To400_TuneCUETP8M1_13TeV-madgraphMLM-pythia8/RunIISpring15DR74-Asympt25ns_MCRUN2_74_V9-v2/AODSIM'
p51
sS'inputDBS'
p52
S'global'
p53
sS'outputDatasetTag'
p54
S'Analysis-20170228'
p55
sg12
I00
sS'unitsPerJob'
p56
I1
sg13
S''
sg14
g15
((lp57
g50
ag54
aS'publication'
p58
ag56
aS'ignoreLocality'
p59
aS'splitting'
p60
ag52
aS'outLFNDirBase'
p61
aS'totalUnits'
p62
atRp63
sg59
I01
sg20
g33
sg60
S'FileBased'
p64
sg21
(dp65
sg62
I1000
sg25
g15
((ltRp66
sg61
S'/store/user/yofeng/GJet/ntuple/Analysis-20170228-v2/GJets_HT-200To400_RunIISpring15DR74/'
p67
sg28
Nsg58
I01
sbsg32
g3
(g9
g5
NtRp68
(dp69
g12
I00
sS'pyCfgParams'
p70
(lp71
S'crab=1'
p72
aS'data=0'
p73
aS'sample=gjet'
p74
asg13
S''
sg14
g15
((lp75
S'priority'
p76
aS'psetName'
p77
aS'pluginName'
p78
ag70
atRp79
sg20
g32
sg21
(dp80
sg76
I30
sg78
S'Analysis'
p81
sg25
g15
((ltRp82
sg77
S'Configuration/test/test_cfg.py'
p83
sg28
NsbsbsS'voGroup'
p84
S''
sS'Server'
p85
S'cmsweb.cern.ch'
p86
sS'instance'
p87
S'prod'
p88
sS'RequestName'
p89
V170301_185608:yofeng_crab_Analysis-20170228-GJets_HT-200To400_RunIISpring15DR74-2017-0301-135541
p90
sS'voRole'
p91
S'NULL'
p92
sS'Port'
p93
S''
s.