(dp1
S'OriginalConfig'
p2
ccopy_reg
_reconstructor
p3
(cWMCore.Configuration
Configuration
p4
c__builtin__
object
p5
NtRp6
(dp7
S'Site'
p8
g3
(cWMCore.Configuration
ConfigSection
p9
g5
NtRp10
(dp11
S'_internal_skipChecks'
p12
I00
sS'_internal_documentation'
p13
S''
sS'_internal_settings'
p14
c__builtin__
set
p15
((lp16
S'blacklist'
p17
aS'storageSite'
p18
atRp19
sS'_internal_name'
p20
g8
sS'_internal_docstrings'
p21
(dp22
sg17
(lp23
S'T2_US_Purdue'
p24
asS'_internal_children'
p25
g15
((ltRp26
sg18
S'T3_US_UMD'
p27
sS'_internal_parent_ref'
p28
NsbsS'_internal_sections'
p29
(lp30
S'General'
p31
aS'JobType'
p32
aS'Data'
p33
ag8
asg31
g3
(g9
g5
NtRp34
(dp35
g12
I00
sg13
S''
sg14
g15
((lp36
S'workArea'
p37
aS'requestName'
p38
atRp39
sg20
g31
sg21
(dp40
sg25
g15
((ltRp41
sg38
S'Analysis-20170321-GJetDataRun2015D-v3-2017-0321-185354'
p42
sg28
Nsg37
S'crabTasks/crab_Analysis-20170321-2017-0321-v8'
p43
sbsS'_internal_webapps'
p44
(lp45
sS'_internal_components'
p46
(lp47
sg33
g3
(g9
g5
NtRp48
(dp49
S'inputDataset'
p50
S'/SinglePhoton/Run2015D-PromptReco-v3/AOD'
p51
sS'inputDBS'
p52
S'global'
p53
sS'outputDatasetTag'
p54
S'Analysis-20170321'
p55
sg12
I00
sS'unitsPerJob'
p56
I1
sg13
S''
sg14
g15
((lp57
g50
ag54
aS'publication'
p58
ag56
aS'ignoreLocality'
p59
aS'splitting'
p60
ag52
aS'outLFNDirBase'
p61
aS'lumiMask'
p62
aS'totalUnits'
p63
atRp64
sg59
I01
sg20
g33
sg60
S'FileBased'
p65
sg21
(dp66
sg63
I10000
sg25
g15
((ltRp67
sg61
S'/store/user/yofeng/GJet/ntuple/Analysis-20170321-v8/GJetDataRun2015D-v3/'
p68
sg28
Nsg62
S'http://cms-service-dqm.web.cern.ch/cms-service-dqm/CAF/certification/Collisions15/13TeV/Cert_246908-260627_13TeV_PromptReco_Collisions15_25ns_JSON_v2.txt'
p69
sg58
I01
sbsg32
g3
(g9
g5
NtRp70
(dp71
g12
I00
sS'pyCfgParams'
p72
(lp73
S'crab=1'
p74
aS'data=1'
p75
aS'sample=gjet'
p76
asg13
S''
sg14
g15
((lp77
S'priority'
p78
aS'psetName'
p79
aS'pluginName'
p80
ag72
atRp81
sg20
g32
sg21
(dp82
sg78
I30
sg80
S'Analysis'
p83
sg25
g15
((ltRp84
sg79
S'Configuration/test/test_cfg.py'
p85
sg28
NsbsbsS'voGroup'
p86
S''
sS'Server'
p87
S'cmsweb.cern.ch'
p88
sS'instance'
p89
S'prod'
p90
sS'RequestName'
p91
V170321_225422:yofeng_crab_Analysis-20170321-GJetDataRun2015D-v3-2017-0321-185354
p92
sS'voRole'
p93
S'NULL'
p94
sS'Port'
p95
S''
s.